; Function Attrs: nounwind uwtable
define noalias ptr @l_Lean_IR_ExpandResetReuse_mkFastPath(ptr noundef %0, ptr noundef %1, ptr noundef readonly captures(none) %2, ptr noundef %3, ptr noundef readonly captures(none) %4, ptr noundef %5) local_unnamed_addr #1 {
  %7 = ptrtoint ptr %1 to i64
  %8 = and i64 %7, 1
  %.not = icmp eq i64 %8, 0
  br i1 %.not, label %9, label %lean_inc.exit

9:                                                ; preds = %6
  %.val.i = load i32, ptr %1, align 4, !tbaa !4
  %10 = icmp sgt i32 %.val.i, 0
  br i1 %10, label %11, label %13, !prof !13

11:                                               ; preds = %9
  %12 = add nuw i32 %.val.i, 1
  store i32 %12, ptr %1, align 4, !tbaa !4
  br label %lean_inc.exit

13:                                               ; preds = %9
  %.not.i = icmp eq i32 %.val.i, 0
  br i1 %.not.i, label %lean_inc.exit, label %14

14:                                               ; preds = %13
  tail call void @lean_inc_ref_cold(ptr noundef nonnull %1) #4
  br label %lean_inc.exit

lean_inc.exit:                                    ; preds = %14, %13, %11, %6
  %15 = tail call ptr @l_Lean_IR_ExpandResetReuse_reuseToSet(ptr noundef %4, ptr noundef %0, ptr noundef %1, ptr noundef %3)
  %16 = getelementptr i8, ptr %2, i64 8
  %.val.i11 = load i64, ptr %16, align 8, !tbaa !9
  %17 = shl i64 %.val.i11, 1
  %18 = or disjoint i64 %17, 1
  %19 = inttoptr i64 %18 to ptr
  %20 = tail call noalias ptr @l_Nat_foldM_loop___at_Lean_IR_ExpandResetReuse_releaseUnreadFields___spec__1(ptr noundef %1, ptr noundef readonly %2, ptr noundef nonnull %19, ptr noundef nonnull %19, ptr nonnull poison, ptr noundef %15, ptr readnone poison, ptr noundef %5)
  ret ptr %20
}